; Function Attrs: mustprogress uwtable
define void @_ZN5Ipopt14CompoundVector25ElementWiseReciprocalImplEv(ptr noundef nonnull readonly align 8 captures(none) dereferenceable(265) %0) unnamed_addr #0 align 2 {
  %2 = getelementptr inbounds nuw i8, ptr %0, i64 256
  %3 = load ptr, ptr %2, align 8, !tbaa !60
  %4 = getelementptr inbounds nuw i8, ptr %3, i64 16
  %5 = load i32, ptr %4, align 8, !tbaa !37
  %6 = icmp sgt i32 %5, 0
  br i1 %6, label %.lr.ph, label %._crit_edge

.lr.ph:                                           ; preds = %1
  %7 = getelementptr inbounds nuw i8, ptr %0, i64 208
  br label %8

._crit_edge:                                      ; preds = %8, %1
  ret void

8:                                                ; preds = %.lr.ph, %8
  %indvars.iv = phi i64 [ 0, %.lr.ph ], [ %indvars.iv.next, %8 ]
  %9 = load ptr, ptr %7, align 8, !tbaa !45
  %10 = getelementptr inbounds nuw %"class.Ipopt::SmartPtr.15", ptr %9, i64 %indvars.iv
  %11 = load ptr, ptr %10, align 8, !tbaa !48
  %12 = load ptr, ptr %11, align 8, !tbaa !8
  %13 = getelementptr inbounds nuw i8, ptr %12, i64 120
  %14 = load ptr, ptr %13, align 8
  tail call void %14(ptr noundef nonnull align 8 dereferenceable(205) %11)
  tail call void @_ZN5Ipopt12TaggedObject13ObjectChangedEv(ptr noundef nonnull align 8 dereferenceable(205) %11)
  %indvars.iv.next = add nuw nsw i64 %indvars.iv, 1
  %15 = load ptr, ptr %2, align 8, !tbaa !60
  %16 = getelementptr inbounds nuw i8, ptr %15, i64 16
  %17 = load i32, ptr %16, align 8, !tbaa !37
  %18 = sext i32 %17 to i64
  %19 = icmp slt i64 %indvars.iv.next, %18
  br i1 %19, label %8, label %._crit_edge, !llvm.loop !133
}